target datalayout = "e-m:e-p270:32:32-p271:32:32-p272:64:64-i64:64-i128:128-f80:128-n8:16:32:64-S128"
target triple = "x86_64-pc-linux-gnu"

%struct.wtap = type { ptr, ptr, i8, i32, i32, ptr, ptr, ptr, i32, ptr, ptr, ptr, ptr, ptr, ptr, ptr, ptr, ptr, ptr, i32, i32, ptr, ptr, ptr, ptr }
%struct.autosar_dlt_data = type { ptr, i32 }

; Function Attrs: null_pointer_is_valid sspstrong uwtable
define internal void @autosar_dlt_close(ptr noundef %0) #0 {
  %2 = alloca ptr, align 8
  %3 = alloca ptr, align 8
  store ptr %0, ptr %2, align 8
  call void @llvm.lifetime.start.p0(i64 8, ptr %3) #9
  %4 = load ptr, ptr %2, align 8
  %5 = getelementptr inbounds nuw %struct.wtap, ptr %4, i32 0, i32 13
  %6 = load ptr, ptr %5, align 8
  store ptr %6, ptr %3, align 8
  %7 = load ptr, ptr %3, align 8
  %8 = icmp ne ptr %7, null
  br i1 %8, label %9, label %20

9:                                                ; preds = %1
  %10 = load ptr, ptr %3, align 8
  %11 = getelementptr inbounds nuw %struct.autosar_dlt_data, ptr %10, i32 0, i32 0
  %12 = load ptr, ptr %11, align 8
  %13 = icmp ne ptr %12, null
  br i1 %13, label %14, label %20

14:                                               ; preds = %9
  %15 = load ptr, ptr %3, align 8
  %16 = getelementptr inbounds nuw %struct.autosar_dlt_data, ptr %15, i32 0, i32 0
  %17 = load ptr, ptr %16, align 8
  call void @g_hash_table_destroy(ptr noundef %17)
  %18 = load ptr, ptr %3, align 8
  %19 = getelementptr inbounds nuw %struct.autosar_dlt_data, ptr %18, i32 0, i32 0
  store ptr null, ptr %19, align 8
  br label %20

20:                                               ; preds = %14, %9, %1
  %21 = load ptr, ptr %3, align 8
  call void @g_free(ptr noundef %21)
  %22 = load ptr, ptr %2, align 8
  %23 = getelementptr inbounds nuw %struct.wtap, ptr %22, i32 0, i32 13
  store ptr null, ptr %23, align 8
  call void @llvm.lifetime.end.p0(i64 8, ptr %3) #9
  ret void
}