; Function Attrs: null_pointer_is_valid sspstrong uwtable
define internal void @autosar_dlt_close(ptr noundef captures(none) %0) #0 {
  %2 = getelementptr inbounds nuw i8, ptr %0, i64 96
  %3 = load ptr, ptr %2, align 8
  %.not = icmp eq ptr %3, null
  br i1 %.not, label %7, label %4

4:                                                ; preds = %1
  %5 = load ptr, ptr %3, align 8
  %.not8 = icmp eq ptr %5, null
  br i1 %.not8, label %7, label %6

6:                                                ; preds = %4
  tail call void @g_hash_table_destroy(ptr noundef nonnull %5)
  store ptr null, ptr %3, align 8
  br label %7

7:                                                ; preds = %6, %4, %1
  tail call void @g_free(ptr noundef %3)
  store ptr null, ptr %2, align 8
  ret void
}